target datalayout = "e-m:e-p270:32:32-p271:32:32-p272:64:64-i64:64-i128:128-f80:128-n8:16:32:64-S128"
target triple = "x86_64-pc-linux-gnu"

; Function Attrs: nounwind uwtable
define internal i32 @_ck_ntohl(i32 noundef %0) #0 {
  %2 = alloca i32, align 4
  %3 = alloca ptr, align 8
  store i32 %0, ptr %2, align 4
  store ptr %2, ptr %3, align 8
  %4 = load ptr, ptr %3, align 8
  %5 = getelementptr inbounds i8, ptr %4, i64 0
  %6 = load i8, ptr %5, align 1
  %7 = zext i8 %6 to i32
  %8 = shl i32 %7, 24
  %9 = load ptr, ptr %3, align 8
  %10 = getelementptr inbounds i8, ptr %9, i64 1
  %11 = load i8, ptr %10, align 1
  %12 = zext i8 %11 to i32
  %13 = shl i32 %12, 16
  %14 = or i32 %8, %13
  %15 = load ptr, ptr %3, align 8
  %16 = getelementptr inbounds i8, ptr %15, i64 2
  %17 = load i8, ptr %16, align 1
  %18 = zext i8 %17 to i32
  %19 = shl i32 %18, 8
  %20 = or i32 %14, %19
  %21 = load ptr, ptr %3, align 8
  %22 = getelementptr inbounds i8, ptr %21, i64 3
  %23 = load i8, ptr %22, align 1
  %24 = zext i8 %23 to i32
  %25 = or i32 %20, %24
  ret i32 %25
}

; Function Attrs: nounwind uwtable
define internal i32 @instruction_length(ptr noundef %0, ptr noundef %1) #0 {
  %3 = alloca i32, align 4
  %4 = alloca ptr, align 8
  %5 = alloca ptr, align 8
  %6 = alloca i32, align 4
  %7 = alloca ptr, align 8
  %8 = alloca i64, align 8
  %9 = alloca i64, align 8
  %10 = alloca i64, align 8
  %11 = alloca ptr, align 8
  %12 = alloca ptr, align 8
  %13 = alloca i32, align 4
  %14 = alloca ptr, align 8
  store ptr %0, ptr %4, align 8
  store ptr %1, ptr %5, align 8
  %15 = load ptr, ptr %4, align 8
  %16 = load i8, ptr %15, align 1
  %17 = zext i8 %16 to i32
  store i32 %17, ptr %6, align 4
  %18 = load i32, ptr %6, align 4
  switch i32 %18, label %112 [
    i32 170, label %19
    i32 171, label %62
    i32 196, label %98
  ]

19:                                               ; preds = %2
  %20 = load ptr, ptr %4, align 8
  %21 = getelementptr inbounds i8, ptr %20, i64 1
  %22 = ptrtoint ptr %21 to i64
  %23 = add i64 %22, 3
  %24 = and i64 %23, -4
  %25 = inttoptr i64 %24 to ptr
  store ptr %25, ptr %7, align 8
  %26 = load ptr, ptr %7, align 8
  %27 = getelementptr inbounds i32, ptr %26, i64 2
  %28 = load ptr, ptr %5, align 8
  %29 = icmp uge ptr %27, %28
  br i1 %29, label %30, label %31

30:                                               ; preds = %19
  store i32 -1, ptr %3, align 4
  br label %133

31:                                               ; preds = %19
  %32 = load ptr, ptr %7, align 8
  %33 = getelementptr inbounds i32, ptr %32, i64 1
  %34 = load i32, ptr %33, align 4
  %35 = call i32 @_ck_ntohl(i32 noundef %34)
  %36 = sext i32 %35 to i64
  store i64 %36, ptr %8, align 8
  %37 = load ptr, ptr %7, align 8
  %38 = getelementptr inbounds i32, ptr %37, i64 2
  %39 = load i32, ptr %38, align 4
  %40 = call i32 @_ck_ntohl(i32 noundef %39)
  %41 = sext i32 %40 to i64
  store i64 %41, ptr %9, align 8
  %42 = load i64, ptr %9, align 8
  %43 = load i64, ptr %8, align 8
  %44 = sub nsw i64 %42, %43
  store i64 %44, ptr %10, align 8
  %45 = load i64, ptr %10, align 8
  %46 = icmp slt i64 %45, 0
  br i1 %46, label %50, label %47

47:                                               ; preds = %31
  %48 = load i64, ptr %10, align 8
  %49 = icmp sgt i64 %48, 65535
  br i1 %49, label %50, label %51

50:                                               ; preds = %47, %31
  store i32 -1, ptr %3, align 4
  br label %133

51:                                               ; preds = %47
  %52 = load ptr, ptr %7, align 8
  %53 = load i64, ptr %10, align 8
  %54 = add nsw i64 %53, 4
  %55 = getelementptr inbounds i32, ptr %52, i64 %54
  store ptr %55, ptr %11, align 8
  %56 = load ptr, ptr %11, align 8
  %57 = load ptr, ptr %4, align 8
  %58 = ptrtoint ptr %56 to i64
  %59 = ptrtoint ptr %57 to i64
  %60 = sub i64 %58, %59
  %61 = trunc i64 %60 to i32
  store i32 %61, ptr %3, align 4
  br label %133

62:                                               ; preds = %2
  %63 = load ptr, ptr %4, align 8
  %64 = getelementptr inbounds i8, ptr %63, i64 1
  %65 = ptrtoint ptr %64 to i64
  %66 = add i64 %65, 3
  %67 = and i64 %66, -4
  %68 = inttoptr i64 %67 to ptr
  store ptr %68, ptr %12, align 8
  %69 = load ptr, ptr %12, align 8
  %70 = getelementptr inbounds i32, ptr %69, i64 1
  %71 = load ptr, ptr %5, align 8
  %72 = icmp uge ptr %70, %71
  br i1 %72, label %73, label %74

73:                                               ; preds = %62
  store i32 -1, ptr %3, align 4
  br label %133

74:                                               ; preds = %62
  %75 = load ptr, ptr %12, align 8
  %76 = getelementptr inbounds i32, ptr %75, i64 1
  %77 = load i32, ptr %76, align 4
  %78 = call i32 @_ck_ntohl(i32 noundef %77)
  store i32 %78, ptr %13, align 4
  %79 = load i32, ptr %13, align 4
  %80 = icmp slt i32 %79, 0
  br i1 %80, label %84, label %81

81:                                               ; preds = %74
  %82 = load i32, ptr %13, align 4
  %83 = icmp sge i32 %82, 65536
  br i1 %83, label %84, label %85

84:                                               ; preds = %81, %74
  store i32 -1, ptr %3, align 4
  br label %133

85:                                               ; preds = %81
  %86 = load ptr, ptr %12, align 8
  %87 = load i32, ptr %13, align 4
  %88 = add nsw i32 %87, 1
  %89 = mul nsw i32 2, %88
  %90 = sext i32 %89 to i64
  %91 = getelementptr inbounds i32, ptr %86, i64 %90
  store ptr %91, ptr %14, align 8
  %92 = load ptr, ptr %14, align 8
  %93 = load ptr, ptr %4, align 8
  %94 = ptrtoint ptr %92 to i64
  %95 = ptrtoint ptr %93 to i64
  %96 = sub i64 %94, %95
  %97 = trunc i64 %96 to i32
  store i32 %97, ptr %3, align 4
  br label %133

98:                                               ; preds = %2
  %99 = load ptr, ptr %4, align 8
  %100 = getelementptr inbounds i8, ptr %99, i64 1
  %101 = load ptr, ptr %5, align 8
  %102 = icmp uge ptr %100, %101
  br i1 %102, label %103, label %104

103:                                              ; preds = %98
  store i32 -1, ptr %3, align 4
  br label %133

104:                                              ; preds = %98
  %105 = load ptr, ptr %4, align 8
  %106 = getelementptr inbounds i8, ptr %105, i64 1
  %107 = load i8, ptr %106, align 1
  %108 = zext i8 %107 to i32
  switch i32 %108, label %111 [
    i32 169, label %109
    i32 21, label %109
    i32 54, label %109
    i32 23, label %109
    i32 56, label %109
    i32 25, label %109
    i32 58, label %109
    i32 22, label %109
    i32 55, label %109
    i32 24, label %109
    i32 57, label %109
    i32 132, label %110
  ]

109:                                              ; preds = %104, %104, %104, %104, %104, %104, %104, %104, %104, %104, %104
  store i32 4, ptr %3, align 4
  br label %133

110:                                              ; preds = %104
  store i32 6, ptr %3, align 4
  br label %133

111:                                              ; preds = %104
  store i32 -1, ptr %3, align 4
  br label %133

112:                                              ; preds = %2
  %113 = load i32, ptr %6, align 4
  %114 = icmp slt i32 %113, 0
  br i1 %114, label %118, label %115

115:                                              ; preds = %112
  %116 = load i32, ptr %6, align 4
  %117 = icmp sgt i32 %116, 201
  br i1 %117, label %118, label %119

118:                                              ; preds = %115, %112
  store i32 -1, ptr %3, align 4
  br label %133

119:                                              ; preds = %115
  %120 = load i32, ptr %6, align 4
  %121 = sext i32 %120 to i64
  %122 = getelementptr inbounds [202 x i8], ptr @instruction_length.opcode_length, i64 0, i64 %121
  %123 = load i8, ptr %122, align 1
  %124 = zext i8 %123 to i32
  %125 = icmp sle i32 %124, 0
  br i1 %125, label %126, label %127

126:                                              ; preds = %119
  store i32 -1, ptr %3, align 4
  br label %133

127:                                              ; preds = %119
  %128 = load i32, ptr %6, align 4
  %129 = sext i32 %128 to i64
  %130 = getelementptr inbounds [202 x i8], ptr @instruction_length.opcode_length, i64 0, i64 %129
  %131 = load i8, ptr %130, align 1
  %132 = zext i8 %131 to i32
  store i32 %132, ptr %3, align 4
  br label %133

133:                                              ; preds = %127, %126, %118, %111, %110, %109, %103, %85, %84, %73, %51, %50, %30
  %134 = load i32, ptr %3, align 4
  ret i32 %134
}