; Function Attrs: mustprogress nofree norecurse nosync nounwind willreturn memory(read, inaccessiblemem: none) uwtable
define internal fastcc i32 @instruction_length(ptr noundef %0, ptr noundef readnone %1) unnamed_addr #12 {
  %3 = load i8, ptr %0, align 1
  switch i8 %3, label %52 [
    i8 -86, label %4
    i8 -85, label %27
    i8 -60, label %46
  ]

4:                                                ; preds = %2
  %5 = getelementptr inbounds i8, ptr %0, i64 1
  %6 = ptrtoint ptr %5 to i64
  %7 = add i64 %6, 3
  %8 = and i64 %7, -4
  %9 = inttoptr i64 %8 to ptr
  %10 = getelementptr inbounds i8, ptr %9, i64 8
  %.not45 = icmp ult ptr %10, %1
  br i1 %.not45, label %11, label %60

11:                                               ; preds = %4
  %12 = getelementptr inbounds i8, ptr %9, i64 4
  %13 = load i32, ptr %12, align 4
  %14 = tail call noundef i32 @llvm.bswap.i32(i32 %13)
  %15 = sext i32 %14 to i64
  %16 = load i32, ptr %10, align 4
  %17 = tail call noundef i32 @llvm.bswap.i32(i32 %16)
  %18 = sext i32 %17 to i64
  %19 = sub nsw i64 %18, %15
  %or.cond = icmp ugt i64 %19, 65535
  br i1 %or.cond, label %60, label %20

20:                                               ; preds = %11
  %21 = getelementptr inbounds i32, ptr %9, i64 %19
  %22 = getelementptr inbounds i8, ptr %21, i64 16
  %23 = ptrtoint ptr %22 to i64
  %24 = ptrtoint ptr %0 to i64
  %25 = sub i64 %23, %24
  %26 = trunc i64 %25 to i32
  br label %60

27:                                               ; preds = %2
  %28 = getelementptr inbounds i8, ptr %0, i64 1
  %29 = ptrtoint ptr %28 to i64
  %30 = add i64 %29, 3
  %31 = and i64 %30, -4
  %32 = inttoptr i64 %31 to ptr
  %33 = getelementptr inbounds i8, ptr %32, i64 4
  %.not44 = icmp ult ptr %33, %1
  br i1 %.not44, label %34, label %60

34:                                               ; preds = %27
  %35 = load i32, ptr %33, align 4
  %36 = tail call noundef i32 @llvm.bswap.i32(i32 %35)
  %or.cond3 = icmp ugt i32 %36, 65535
  br i1 %or.cond3, label %60, label %37

37:                                               ; preds = %34
  %38 = shl nuw nsw i32 %36, 1
  %39 = zext nneg i32 %38 to i64
  %40 = getelementptr inbounds i32, ptr %32, i64 %39
  %41 = getelementptr inbounds i8, ptr %40, i64 8
  %42 = ptrtoint ptr %41 to i64
  %43 = ptrtoint ptr %0 to i64
  %44 = sub i64 %42, %43
  %45 = trunc i64 %44 to i32
  br label %60

46:                                               ; preds = %2
  %47 = getelementptr inbounds i8, ptr %0, i64 1
  %.not = icmp ult ptr %47, %1
  br i1 %.not, label %48, label %60

48:                                               ; preds = %46
  %49 = load i8, ptr %47, align 1
  switch i8 %49, label %51 [
    i8 -87, label %60
    i8 21, label %60
    i8 54, label %60
    i8 23, label %60
    i8 56, label %60
    i8 25, label %60
    i8 58, label %60
    i8 22, label %60
    i8 55, label %60
    i8 24, label %60
    i8 57, label %60
    i8 -124, label %50
  ]

50:                                               ; preds = %48
  br label %60

51:                                               ; preds = %48
  br label %60

52:                                               ; preds = %2
  %53 = icmp ugt i8 %3, -55
  %54 = icmp eq i8 %3, -60
  %or.cond46 = or i1 %53, %54
  br i1 %or.cond46, label %60, label %55

55:                                               ; preds = %52
  %56 = zext i8 %3 to i64
  %57 = getelementptr inbounds [202 x i8], ptr @instruction_length.opcode_length, i64 0, i64 %56
  %58 = load i8, ptr %57, align 1
  %59 = zext i8 %58 to i32
  br label %60

60:                                               ; preds = %52, %48, %48, %48, %48, %48, %48, %48, %48, %48, %48, %48, %46, %34, %27, %11, %4, %55, %51, %50, %37, %20
  %.0 = phi i32 [ %59, %55 ], [ -1, %51 ], [ 6, %50 ], [ %45, %37 ], [ %26, %20 ], [ -1, %4 ], [ -1, %11 ], [ -1, %27 ], [ -1, %34 ], [ -1, %46 ], [ 4, %48 ], [ 4, %48 ], [ 4, %48 ], [ 4, %48 ], [ 4, %48 ], [ 4, %48 ], [ 4, %48 ], [ 4, %48 ], [ 4, %48 ], [ 4, %48 ], [ 4, %48 ], [ -1, %52 ]
  ret i32 %.0
}